target datalayout = "e-m:e-p270:32:32-p271:32:32-p272:64:64-i64:64-i128:128-f80:128-n8:16:32:64-S128"
target triple = "x86_64-pc-linux-gnu"

%"class.gmx::NoseHooverChainsData" = type <{ %"class.gmx::ICheckpointHelperClient", %"class.std::__cxx11::basic_string", %"class.std::vector.20", i32, [4 x i8] }>
%"class.gmx::ICheckpointHelperClient" = type { ptr }
%"class.std::__cxx11::basic_string" = type { %"struct.std::__cxx11::basic_string<char>::_Alloc_hider", i64, %union.anon }
%"struct.std::__cxx11::basic_string<char>::_Alloc_hider" = type { ptr }
%union.anon = type { i64, [8 x i8] }
%"class.std::vector.20" = type { %"struct.std::_Vector_base.21" }
%"struct.std::_Vector_base.21" = type { %"struct.std::_Vector_base<gmx::NoseHooverGroup, std::allocator<gmx::NoseHooverGroup>>::_Vector_impl" }
%"struct.std::_Vector_base<gmx::NoseHooverGroup, std::allocator<gmx::NoseHooverGroup>>::_Vector_impl" = type { %"struct.std::_Vector_base<gmx::NoseHooverGroup, std::allocator<gmx::NoseHooverGroup>>::_Vector_impl_data" }
%"struct.std::_Vector_base<gmx::NoseHooverGroup, std::allocator<gmx::NoseHooverGroup>>::_Vector_impl_data" = type { ptr, ptr, ptr }
%"class.gmx::NoseHooverGroup" = type { float, float, float, i32, float, %"class.std::vector", %"class.std::vector", double, %"class.std::vector", float, float }
%"class.std::vector" = type { %"struct.std::_Vector_base" }
%"struct.std::_Vector_base" = type { %"struct.std::_Vector_base<float, std::allocator<float>>::_Vector_impl" }
%"struct.std::_Vector_base<float, std::allocator<float>>::_Vector_impl" = type { %"struct.std::_Vector_base<float, std::allocator<float>>::_Vector_impl_data" }
%"struct.std::_Vector_base<float, std::allocator<float>>::_Vector_impl_data" = type { ptr, ptr, ptr }
%"class.__gnu_cxx::__normal_iterator.25" = type { ptr }
%class.anon.138 = type { ptr }
%class.anon.315 = type { ptr }

; Function Attrs: inlinehint mustprogress nounwind uwtable
define linkonce_odr noundef double @_ZNK3gmx15NoseHooverGroup8integralEv(ptr noundef nonnull align 8 dereferenceable(112) %0) #2 comdat align 2 {
  %2 = alloca ptr, align 8
  store ptr %0, ptr %2, align 8, !tbaa !34
  %3 = load ptr, ptr %2, align 8
  %4 = getelementptr inbounds nuw %"class.gmx::NoseHooverGroup", ptr %3, i32 0, i32 7
  %5 = load double, ptr %4, align 8, !tbaa !78
  ret double %5
}

; Function Attrs: mustprogress nounwind uwtable
define linkonce_odr noundef nonnull align 8 dereferenceable(8) ptr @_ZNK9__gnu_cxx17__normal_iteratorIPKN3gmx15NoseHooverGroupESt6vectorIS2_SaIS2_EEE4baseEv(ptr noundef nonnull align 8 dereferenceable(8) %0) #0 comdat align 2 {
  %2 = alloca ptr, align 8
  store ptr %0, ptr %2, align 8, !tbaa !176
  %3 = load ptr, ptr %2, align 8
  %4 = getelementptr inbounds nuw %"class.__gnu_cxx::__normal_iterator.25", ptr %3, i32 0, i32 0
  ret ptr %4
}

; Function Attrs: mustprogress nounwind uwtable
define linkonce_odr noundef nonnull align 8 dereferenceable(8) ptr @_ZN9__gnu_cxx17__normal_iteratorIPKN3gmx15NoseHooverGroupESt6vectorIS2_SaIS2_EEEppEv(ptr noundef nonnull align 8 dereferenceable(8) %0) #0 comdat align 2 {
  %2 = alloca ptr, align 8
  store ptr %0, ptr %2, align 8, !tbaa !176
  %3 = load ptr, ptr %2, align 8
  %4 = getelementptr inbounds nuw %"class.__gnu_cxx::__normal_iterator.25", ptr %3, i32 0, i32 0
  %5 = load ptr, ptr %4, align 8, !tbaa !178
  %6 = getelementptr inbounds nuw %"class.gmx::NoseHooverGroup", ptr %5, i32 1
  store ptr %6, ptr %4, align 8, !tbaa !178
  ret ptr %3
}

; Function Attrs: inlinehint mustprogress uwtable
define internal void @"_ZZNK3gmx20NoseHooverChainsData27temperatureCouplingIntegralEdENK3$_0clINS_15NoseHooverGroupEEEDaRKT_"(ptr noundef nonnull align 8 dereferenceable(8) %0, ptr noundef nonnull align 8 dereferenceable(112) %1) #8 align 2 {
  %3 = alloca ptr, align 8
  %4 = alloca ptr, align 8
  store ptr %0, ptr %3, align 8, !tbaa !101
  store ptr %1, ptr %4, align 8, !tbaa !34
  %5 = load ptr, ptr %3, align 8
  %6 = load ptr, ptr %4, align 8, !tbaa !34
  %7 = call noundef double @_ZNK3gmx15NoseHooverGroup8integralEv(ptr noundef nonnull align 8 dereferenceable(112) %6)
  %8 = getelementptr inbounds nuw %class.anon.315, ptr %5, i32 0, i32 0
  %9 = load ptr, ptr %8, align 8, !tbaa !683
  %10 = load double, ptr %9, align 8, !tbaa !41
  %11 = fadd double %10, %7
  store double %11, ptr %9, align 8, !tbaa !41
  ret void
}

; Function Attrs: mustprogress nounwind uwtable
define linkonce_odr noundef nonnull align 8 dereferenceable(112) ptr @_ZNK9__gnu_cxx17__normal_iteratorIPKN3gmx15NoseHooverGroupESt6vectorIS2_SaIS2_EEEdeEv(ptr noundef nonnull align 8 dereferenceable(8) %0) #0 comdat align 2 {
  %2 = alloca ptr, align 8
  store ptr %0, ptr %2, align 8, !tbaa !176
  %3 = load ptr, ptr %2, align 8
  %4 = getelementptr inbounds nuw %"class.__gnu_cxx::__normal_iterator.25", ptr %3, i32 0, i32 0
  %5 = load ptr, ptr %4, align 8, !tbaa !178
  ret ptr %5
}

; Function Attrs: inlinehint mustprogress nounwind uwtable
define linkonce_odr noundef zeroext i1 @_ZN9__gnu_cxxneIPKN3gmx15NoseHooverGroupESt6vectorIS2_SaIS2_EEEEbRKNS_17__normal_iteratorIT_T0_EESD_(ptr noundef nonnull align 8 dereferenceable(8) %0, ptr noundef nonnull align 8 dereferenceable(8) %1) #2 comdat {
  %3 = alloca ptr, align 8
  %4 = alloca ptr, align 8
  store ptr %0, ptr %3, align 8, !tbaa !176
  store ptr %1, ptr %4, align 8, !tbaa !176
  %5 = load ptr, ptr %3, align 8, !tbaa !176
  %6 = call noundef nonnull align 8 dereferenceable(8) ptr @_ZNK9__gnu_cxx17__normal_iteratorIPKN3gmx15NoseHooverGroupESt6vectorIS2_SaIS2_EEE4baseEv(ptr noundef nonnull align 8 dereferenceable(8) %5) #21
  %7 = load ptr, ptr %6, align 8, !tbaa !34
  %8 = load ptr, ptr %4, align 8, !tbaa !176
  %9 = call noundef nonnull align 8 dereferenceable(8) ptr @_ZNK9__gnu_cxx17__normal_iteratorIPKN3gmx15NoseHooverGroupESt6vectorIS2_SaIS2_EEE4baseEv(ptr noundef nonnull align 8 dereferenceable(8) %8) #21
  %10 = load ptr, ptr %9, align 8, !tbaa !34
  %11 = icmp ne ptr %7, %10
  ret i1 %11
}

; Function Attrs: mustprogress nounwind uwtable
define linkonce_odr void @_ZN9__gnu_cxx17__normal_iteratorIPKN3gmx15NoseHooverGroupESt6vectorIS2_SaIS2_EEEC2ERKS4_(ptr noundef nonnull align 8 dereferenceable(8) %0, ptr noundef nonnull align 8 dereferenceable(8) %1) unnamed_addr #0 comdat align 2 {
  %3 = alloca ptr, align 8
  %4 = alloca ptr, align 8
  store ptr %0, ptr %3, align 8, !tbaa !176
  store ptr %1, ptr %4, align 8, !tbaa !146
  %5 = load ptr, ptr %3, align 8
  %6 = getelementptr inbounds nuw %"class.__gnu_cxx::__normal_iterator.25", ptr %5, i32 0, i32 0
  %7 = load ptr, ptr %4, align 8, !tbaa !146
  %8 = load ptr, ptr %7, align 8, !tbaa !34
  store ptr %8, ptr %6, align 8, !tbaa !178
  ret void
}

; Function Attrs: mustprogress uwtable
define internal ptr @"_ZSt8for_eachIN9__gnu_cxx17__normal_iteratorIPKN3gmx15NoseHooverGroupESt6vectorIS3_SaIS3_EEEEZNKS2_20NoseHooverChainsData27temperatureCouplingIntegralEdE3$_0ET0_T_SD_SC_"(ptr %0, ptr %1, ptr %2) #1 {
  %4 = alloca %class.anon.315, align 8
  %5 = alloca %"class.__gnu_cxx::__normal_iterator.25", align 8
  %6 = alloca %"class.__gnu_cxx::__normal_iterator.25", align 8
  %7 = alloca %class.anon.315, align 8
  %8 = getelementptr inbounds nuw %"class.__gnu_cxx::__normal_iterator.25", ptr %5, i32 0, i32 0
  store ptr %0, ptr %8, align 8
  %9 = getelementptr inbounds nuw %"class.__gnu_cxx::__normal_iterator.25", ptr %6, i32 0, i32 0
  store ptr %1, ptr %9, align 8
  %10 = getelementptr inbounds nuw %class.anon.315, ptr %7, i32 0, i32 0
  store ptr %2, ptr %10, align 8
  br label %11

11:                                               ; preds = %15, %3
  %12 = call noundef zeroext i1 @_ZN9__gnu_cxxneIPKN3gmx15NoseHooverGroupESt6vectorIS2_SaIS2_EEEEbRKNS_17__normal_iteratorIT_T0_EESD_(ptr noundef nonnull align 8 dereferenceable(8) %5, ptr noundef nonnull align 8 dereferenceable(8) %6) #21
  br i1 %12, label %13, label %17

13:                                               ; preds = %11
  %14 = call noundef nonnull align 8 dereferenceable(112) ptr @_ZNK9__gnu_cxx17__normal_iteratorIPKN3gmx15NoseHooverGroupESt6vectorIS2_SaIS2_EEEdeEv(ptr noundef nonnull align 8 dereferenceable(8) %5) #21
  call void @"_ZZNK3gmx20NoseHooverChainsData27temperatureCouplingIntegralEdENK3$_0clINS_15NoseHooverGroupEEEDaRKT_"(ptr noundef nonnull align 8 dereferenceable(8) %7, ptr noundef nonnull align 8 dereferenceable(112) %14)
  br label %15

15:                                               ; preds = %13
  %16 = call noundef nonnull align 8 dereferenceable(8) ptr @_ZN9__gnu_cxx17__normal_iteratorIPKN3gmx15NoseHooverGroupESt6vectorIS2_SaIS2_EEEppEv(ptr noundef nonnull align 8 dereferenceable(8) %5) #21
  br label %11, !llvm.loop !681

17:                                               ; preds = %11
  call void @llvm.memcpy.p0.p0.i64(ptr align 8 %4, ptr align 8 %7, i64 8, i1 false), !tbaa.struct !682
  %18 = getelementptr inbounds nuw %class.anon.315, ptr %4, i32 0, i32 0
  %19 = load ptr, ptr %18, align 8
  ret ptr %19
}

; Function Attrs: mustprogress nounwind uwtable
define linkonce_odr ptr @_ZNKSt6vectorIN3gmx15NoseHooverGroupESaIS1_EE3endEv(ptr noundef nonnull align 8 dereferenceable(24) %0) #0 comdat align 2 {
  %2 = alloca %"class.__gnu_cxx::__normal_iterator.25", align 8
  %3 = alloca ptr, align 8
  store ptr %0, ptr %3, align 8, !tbaa !32
  %4 = load ptr, ptr %3, align 8
  %5 = getelementptr inbounds nuw %"struct.std::_Vector_base.21", ptr %4, i32 0, i32 0
  %6 = getelementptr inbounds nuw %"struct.std::_Vector_base<gmx::NoseHooverGroup, std::allocator<gmx::NoseHooverGroup>>::_Vector_impl_data", ptr %5, i32 0, i32 1
  call void @_ZN9__gnu_cxx17__normal_iteratorIPKN3gmx15NoseHooverGroupESt6vectorIS2_SaIS2_EEEC2ERKS4_(ptr noundef nonnull align 8 dereferenceable(8) %2, ptr noundef nonnull align 8 dereferenceable(8) %6) #21
  %7 = getelementptr inbounds nuw %"class.__gnu_cxx::__normal_iterator.25", ptr %2, i32 0, i32 0
  %8 = load ptr, ptr %7, align 8
  ret ptr %8
}

; Function Attrs: mustprogress nounwind uwtable
define linkonce_odr ptr @_ZNKSt6vectorIN3gmx15NoseHooverGroupESaIS1_EE5beginEv(ptr noundef nonnull align 8 dereferenceable(24) %0) #0 comdat align 2 {
  %2 = alloca %"class.__gnu_cxx::__normal_iterator.25", align 8
  %3 = alloca ptr, align 8
  store ptr %0, ptr %3, align 8, !tbaa !32
  %4 = load ptr, ptr %3, align 8
  %5 = getelementptr inbounds nuw %"struct.std::_Vector_base.21", ptr %4, i32 0, i32 0
  %6 = getelementptr inbounds nuw %"struct.std::_Vector_base<gmx::NoseHooverGroup, std::allocator<gmx::NoseHooverGroup>>::_Vector_impl_data", ptr %5, i32 0, i32 0
  call void @_ZN9__gnu_cxx17__normal_iteratorIPKN3gmx15NoseHooverGroupESt6vectorIS2_SaIS2_EEEC2ERKS4_(ptr noundef nonnull align 8 dereferenceable(8) %2, ptr noundef nonnull align 8 dereferenceable(8) %6) #21
  %7 = getelementptr inbounds nuw %"class.__gnu_cxx::__normal_iterator.25", ptr %2, i32 0, i32 0
  %8 = load ptr, ptr %7, align 8
  ret ptr %8
}

; Function Attrs: mustprogress uwtable
define noundef double @_ZNK3gmx20NoseHooverChainsData27temperatureCouplingIntegralEd(ptr noundef nonnull align 8 dereferenceable(72) %0, double noundef %1) #1 align 2 {
  %3 = alloca ptr, align 8
  %4 = alloca double, align 8
  %5 = alloca double, align 8
  %6 = alloca %"class.__gnu_cxx::__normal_iterator.25", align 8
  %7 = alloca %"class.__gnu_cxx::__normal_iterator.25", align 8
  %8 = alloca %class.anon.315, align 8
  %9 = alloca %class.anon.315, align 8
  store ptr %0, ptr %3, align 8, !tbaa !4
  store double %1, ptr %4, align 8, !tbaa !41
  %10 = load ptr, ptr %3, align 8
  call void @llvm.lifetime.start.p0(i64 8, ptr %5) #21
  store double 0.000000e+00, ptr %5, align 8, !tbaa !41
  %11 = getelementptr inbounds nuw %"class.gmx::NoseHooverChainsData", ptr %10, i32 0, i32 2
  %12 = call ptr @_ZNKSt6vectorIN3gmx15NoseHooverGroupESaIS1_EE5beginEv(ptr noundef nonnull align 8 dereferenceable(24) %11) #21
  %13 = getelementptr inbounds nuw %"class.__gnu_cxx::__normal_iterator.25", ptr %6, i32 0, i32 0
  store ptr %12, ptr %13, align 8
  %14 = getelementptr inbounds nuw %"class.gmx::NoseHooverChainsData", ptr %10, i32 0, i32 2
  %15 = call ptr @_ZNKSt6vectorIN3gmx15NoseHooverGroupESaIS1_EE3endEv(ptr noundef nonnull align 8 dereferenceable(24) %14) #21
  %16 = getelementptr inbounds nuw %"class.__gnu_cxx::__normal_iterator.25", ptr %7, i32 0, i32 0
  store ptr %15, ptr %16, align 8
  %17 = getelementptr inbounds nuw %class.anon.315, ptr %8, i32 0, i32 0
  store ptr %5, ptr %17, align 8, !tbaa !678
  %18 = getelementptr inbounds nuw %"class.__gnu_cxx::__normal_iterator.25", ptr %6, i32 0, i32 0
  %19 = load ptr, ptr %18, align 8
  %20 = getelementptr inbounds nuw %"class.__gnu_cxx::__normal_iterator.25", ptr %7, i32 0, i32 0
  %21 = load ptr, ptr %20, align 8
  %22 = getelementptr inbounds nuw %class.anon.315, ptr %8, i32 0, i32 0
  %23 = load ptr, ptr %22, align 8
  %24 = call ptr @"_ZSt8for_eachIN9__gnu_cxx17__normal_iteratorIPKN3gmx15NoseHooverGroupESt6vectorIS3_SaIS3_EEEEZNKS2_20NoseHooverChainsData27temperatureCouplingIntegralEdE3$_0ET0_T_SD_SC_"(ptr %19, ptr %21, ptr %23)
  %25 = getelementptr inbounds nuw %class.anon.315, ptr %9, i32 0, i32 0
  store ptr %24, ptr %25, align 8
  %26 = load double, ptr %5, align 8, !tbaa !41
  call void @llvm.lifetime.end.p0(i64 8, ptr %5) #21
  ret double %26
}

; Function Attrs: inlinehint mustprogress uwtable
define internal noundef double @"_ZZN3gmx20NoseHooverChainsData5buildENS_8NhcUsageEPNS_19LegacySimulatorDataEPNS_38ModularSimulatorAlgorithmBuilderHelperEPNS_10EnergyDataEENK3$_1clEld"(ptr noundef nonnull align 8 dereferenceable(8) %0, i64 noundef %1, double noundef %2) #8 align 2 {
  %4 = alloca ptr, align 8
  %5 = alloca i64, align 8
  %6 = alloca double, align 8
  store ptr %0, ptr %4, align 8, !tbaa !101
  store i64 %1, ptr %5, align 8, !tbaa !39
  store double %2, ptr %6, align 8, !tbaa !41
  %7 = load ptr, ptr %4, align 8
  %8 = getelementptr inbounds nuw %class.anon.138, ptr %7, i32 0, i32 0
  %9 = load ptr, ptr %8, align 8, !tbaa !326
  %10 = load double, ptr %6, align 8, !tbaa !41
  %11 = call noundef double @_ZNK3gmx20NoseHooverChainsData27temperatureCouplingIntegralEd(ptr noundef nonnull align 8 dereferenceable(72) %9, double noundef %10)
  ret double %11
}

; Function Attrs: mustprogress nounwind uwtable
define linkonce_odr noundef ptr @_ZNKSt9_Any_data9_M_accessEv(ptr noundef nonnull align 8 dereferenceable(16) %0) #0 comdat align 2 {
  %2 = alloca ptr, align 8
  store ptr %0, ptr %2, align 8, !tbaa !670
  %3 = load ptr, ptr %2, align 8
  %4 = getelementptr inbounds [16 x i8], ptr %3, i64 0, i64 0
  ret ptr %4
}

; Function Attrs: mustprogress uwtable
define internal noundef double @"_ZSt13__invoke_implIdRZN3gmx20NoseHooverChainsData5buildENS0_8NhcUsageEPNS0_19LegacySimulatorDataEPNS0_38ModularSimulatorAlgorithmBuilderHelperEPNS0_10EnergyDataEE3$_1JldEET_St14__invoke_otherOT0_DpOT1_"(ptr noundef nonnull align 8 dereferenceable(8) %0, ptr noundef nonnull align 8 dereferenceable(8) %1, ptr noundef nonnull align 8 dereferenceable(8) %2) #1 {
  %4 = alloca ptr, align 8
  %5 = alloca ptr, align 8
  %6 = alloca ptr, align 8
  store ptr %0, ptr %4, align 8, !tbaa !101
  store ptr %1, ptr %5, align 8, !tbaa !95
  store ptr %2, ptr %6, align 8, !tbaa !678
  %7 = load ptr, ptr %4, align 8, !tbaa !101
  %8 = load ptr, ptr %5, align 8, !tbaa !95
  %9 = load i64, ptr %8, align 8, !tbaa !39
  %10 = load ptr, ptr %6, align 8, !tbaa !678
  %11 = load double, ptr %10, align 8, !tbaa !41
  %12 = call noundef double @"_ZZN3gmx20NoseHooverChainsData5buildENS_8NhcUsageEPNS_19LegacySimulatorDataEPNS_38ModularSimulatorAlgorithmBuilderHelperEPNS_10EnergyDataEENK3$_1clEld"(ptr noundef nonnull align 8 dereferenceable(8) %7, i64 noundef %9, double noundef %11)
  ret double %12
}

; Function Attrs: mustprogress nounwind uwtable
define internal noundef nonnull align 8 dereferenceable(8) ptr @"_ZNKSt9_Any_data9_M_accessIZN3gmx20NoseHooverChainsData5buildENS1_8NhcUsageEPNS1_19LegacySimulatorDataEPNS1_38ModularSimulatorAlgorithmBuilderHelperEPNS1_10EnergyDataEE3$_1EERKT_v"(ptr noundef nonnull align 8 dereferenceable(16) %0) #0 align 2 {
  %2 = alloca ptr, align 8
  store ptr %0, ptr %2, align 8, !tbaa !670
  %3 = load ptr, ptr %2, align 8
  %4 = call noundef ptr @_ZNKSt9_Any_data9_M_accessEv(ptr noundef nonnull align 8 dereferenceable(16) %3) #21
  ret ptr %4
}

; Function Attrs: mustprogress uwtable
define internal noundef float @"_ZSt10__invoke_rIfRZN3gmx20NoseHooverChainsData5buildENS0_8NhcUsageEPNS0_19LegacySimulatorDataEPNS0_38ModularSimulatorAlgorithmBuilderHelperEPNS0_10EnergyDataEE3$_1JldEENSt9enable_ifIX16is_invocable_r_vIT_T0_DpT1_EESC_E4typeEOSD_DpOSE_"(ptr noundef nonnull align 8 dereferenceable(8) %0, ptr noundef nonnull align 8 dereferenceable(8) %1, ptr noundef nonnull align 8 dereferenceable(8) %2) #1 {
  %4 = alloca ptr, align 8
  %5 = alloca ptr, align 8
  %6 = alloca ptr, align 8
  store ptr %0, ptr %4, align 8, !tbaa !101
  store ptr %1, ptr %5, align 8, !tbaa !95
  store ptr %2, ptr %6, align 8, !tbaa !678
  %7 = load ptr, ptr %4, align 8, !tbaa !101
  %8 = load ptr, ptr %5, align 8, !tbaa !95
  %9 = load ptr, ptr %6, align 8, !tbaa !678
  %10 = call noundef double @"_ZSt13__invoke_implIdRZN3gmx20NoseHooverChainsData5buildENS0_8NhcUsageEPNS0_19LegacySimulatorDataEPNS0_38ModularSimulatorAlgorithmBuilderHelperEPNS0_10EnergyDataEE3$_1JldEET_St14__invoke_otherOT0_DpOT1_"(ptr noundef nonnull align 8 dereferenceable(8) %7, ptr noundef nonnull align 8 dereferenceable(8) %8, ptr noundef nonnull align 8 dereferenceable(8) %9)
  %11 = fptrunc double %10 to float
  ret float %11
}

; Function Attrs: mustprogress nounwind uwtable
define internal noundef ptr @"_ZNSt14_Function_base13_Base_managerIZN3gmx20NoseHooverChainsData5buildENS1_8NhcUsageEPNS1_19LegacySimulatorDataEPNS1_38ModularSimulatorAlgorithmBuilderHelperEPNS1_10EnergyDataEE3$_1E14_M_get_pointerERKSt9_Any_data"(ptr noundef nonnull align 8 dereferenceable(16) %0) #0 align 2 {
  %2 = alloca ptr, align 8
  %3 = alloca ptr, align 8
  store ptr %0, ptr %2, align 8, !tbaa !670
  call void @llvm.lifetime.start.p0(i64 8, ptr %3) #21
  %4 = load ptr, ptr %2, align 8, !tbaa !670
  %5 = call noundef nonnull align 8 dereferenceable(8) ptr @"_ZNKSt9_Any_data9_M_accessIZN3gmx20NoseHooverChainsData5buildENS1_8NhcUsageEPNS1_19LegacySimulatorDataEPNS1_38ModularSimulatorAlgorithmBuilderHelperEPNS1_10EnergyDataEE3$_1EERKT_v"(ptr noundef nonnull align 8 dereferenceable(16) %4) #21
  store ptr %5, ptr %3, align 8, !tbaa !101
  %6 = load ptr, ptr %3, align 8, !tbaa !101
  call void @llvm.lifetime.end.p0(i64 8, ptr %3) #21
  ret ptr %6
}

; Function Attrs: mustprogress uwtable
define internal noundef float @"_ZNSt17_Function_handlerIFfldEZN3gmx20NoseHooverChainsData5buildENS1_8NhcUsageEPNS1_19LegacySimulatorDataEPNS1_38ModularSimulatorAlgorithmBuilderHelperEPNS1_10EnergyDataEE3$_1E9_M_invokeERKSt9_Any_dataOlOd"(ptr noundef nonnull align 8 dereferenceable(16) %0, ptr noundef nonnull align 8 dereferenceable(8) %1, ptr noundef nonnull align 8 dereferenceable(8) %2) #1 align 2 {
  %4 = alloca ptr, align 8
  %5 = alloca ptr, align 8
  %6 = alloca ptr, align 8
  store ptr %0, ptr %4, align 8, !tbaa !670
  store ptr %1, ptr %5, align 8, !tbaa !95
  store ptr %2, ptr %6, align 8, !tbaa !678
  %7 = load ptr, ptr %4, align 8, !tbaa !670
  %8 = call noundef ptr @"_ZNSt14_Function_base13_Base_managerIZN3gmx20NoseHooverChainsData5buildENS1_8NhcUsageEPNS1_19LegacySimulatorDataEPNS1_38ModularSimulatorAlgorithmBuilderHelperEPNS1_10EnergyDataEE3$_1E14_M_get_pointerERKSt9_Any_data"(ptr noundef nonnull align 8 dereferenceable(16) %7) #21
  %9 = load ptr, ptr %5, align 8, !tbaa !95
  %10 = load ptr, ptr %6, align 8, !tbaa !678
  %11 = call noundef float @"_ZSt10__invoke_rIfRZN3gmx20NoseHooverChainsData5buildENS0_8NhcUsageEPNS0_19LegacySimulatorDataEPNS0_38ModularSimulatorAlgorithmBuilderHelperEPNS0_10EnergyDataEE3$_1JldEENSt9enable_ifIX16is_invocable_r_vIT_T0_DpT1_EESC_E4typeEOSD_DpOSE_"(ptr noundef nonnull align 8 dereferenceable(8) %8, ptr noundef nonnull align 8 dereferenceable(8) %9, ptr noundef nonnull align 8 dereferenceable(8) %10)
  ret float %11
}