; Function Attrs: mustprogress nofree norecurse nosync nounwind willreturn memory(read, inaccessiblemem: none) uwtable
define internal noundef float @"_ZNSt17_Function_handlerIFfldEZN3gmx20NoseHooverChainsData5buildENS1_8NhcUsageEPNS1_19LegacySimulatorDataEPNS1_38ModularSimulatorAlgorithmBuilderHelperEPNS1_10EnergyDataEE3$_1E9_M_invokeERKSt9_Any_dataOlOd"(ptr noundef nonnull readonly align 8 captures(none) dereferenceable(16) %0, ptr nonnull readonly align 8 captures(none) %1, ptr nonnull readonly align 8 captures(none) %2) #21 align 2 {
  %.val = load ptr, ptr %0, align 8, !tbaa !334
  %4 = getelementptr i8, ptr %.val, i64 40
  %.val.val = load ptr, ptr %4, align 8, !tbaa !32
  %5 = getelementptr i8, ptr %.val, i64 48
  %.val.val5 = load ptr, ptr %5, align 8, !tbaa !32
  %.not6.i.i.i.i.i = icmp eq ptr %.val.val, %.val.val5
  br i1 %.not6.i.i.i.i.i, label %"_ZSt10__invoke_rIfRZN3gmx20NoseHooverChainsData5buildENS0_8NhcUsageEPNS0_19LegacySimulatorDataEPNS0_38ModularSimulatorAlgorithmBuilderHelperEPNS0_10EnergyDataEE3$_1JldEENSt9enable_ifIX16is_invocable_r_vIT_T0_DpT1_EESC_E4typeEOSD_DpOSE_.exit", label %.lr.ph.i.i.i.i.i

.lr.ph.i.i.i.i.i:                                 ; preds = %3, %.lr.ph.i.i.i.i.i
  %6 = phi double [ %8, %.lr.ph.i.i.i.i.i ], [ 0.000000e+00, %3 ]
  %.sroa.03.07.i.i.i.i.i = phi ptr [ %9, %.lr.ph.i.i.i.i.i ], [ %.val.val, %3 ]
  %7 = getelementptr i8, ptr %.sroa.03.07.i.i.i.i.i, i64 72
  %.val1.i.i.i.i.i = load double, ptr %7, align 8, !tbaa !35
  %8 = fadd double %6, %.val1.i.i.i.i.i
  %9 = getelementptr inbounds nuw i8, ptr %.sroa.03.07.i.i.i.i.i, i64 112
  %.not.i.i.i.i.i = icmp eq ptr %9, %.val.val5
  br i1 %.not.i.i.i.i.i, label %"_ZSt13__invoke_implIdRZN3gmx20NoseHooverChainsData5buildENS0_8NhcUsageEPNS0_19LegacySimulatorDataEPNS0_38ModularSimulatorAlgorithmBuilderHelperEPNS0_10EnergyDataEE3$_1JldEET_St14__invoke_otherOT0_DpOT1_.exit.loopexit.i", label %.lr.ph.i.i.i.i.i, !llvm.loop !336

"_ZSt13__invoke_implIdRZN3gmx20NoseHooverChainsData5buildENS0_8NhcUsageEPNS0_19LegacySimulatorDataEPNS0_38ModularSimulatorAlgorithmBuilderHelperEPNS0_10EnergyDataEE3$_1JldEET_St14__invoke_otherOT0_DpOT1_.exit.loopexit.i": ; preds = %.lr.ph.i.i.i.i.i
  %10 = fptrunc double %8 to float
  br label %"_ZSt10__invoke_rIfRZN3gmx20NoseHooverChainsData5buildENS0_8NhcUsageEPNS0_19LegacySimulatorDataEPNS0_38ModularSimulatorAlgorithmBuilderHelperEPNS0_10EnergyDataEE3$_1JldEENSt9enable_ifIX16is_invocable_r_vIT_T0_DpT1_EESC_E4typeEOSD_DpOSE_.exit"

"_ZSt10__invoke_rIfRZN3gmx20NoseHooverChainsData5buildENS0_8NhcUsageEPNS0_19LegacySimulatorDataEPNS0_38ModularSimulatorAlgorithmBuilderHelperEPNS0_10EnergyDataEE3$_1JldEENSt9enable_ifIX16is_invocable_r_vIT_T0_DpT1_EESC_E4typeEOSD_DpOSE_.exit": ; preds = %3, %"_ZSt13__invoke_implIdRZN3gmx20NoseHooverChainsData5buildENS0_8NhcUsageEPNS0_19LegacySimulatorDataEPNS0_38ModularSimulatorAlgorithmBuilderHelperEPNS0_10EnergyDataEE3$_1JldEET_St14__invoke_otherOT0_DpOT1_.exit.loopexit.i"
  %.0.i.i.i.i = phi float [ 0.000000e+00, %3 ], [ %10, %"_ZSt13__invoke_implIdRZN3gmx20NoseHooverChainsData5buildENS0_8NhcUsageEPNS0_19LegacySimulatorDataEPNS0_38ModularSimulatorAlgorithmBuilderHelperEPNS0_10EnergyDataEE3$_1JldEET_St14__invoke_otherOT0_DpOT1_.exit.loopexit.i" ]
  ret float %.0.i.i.i.i
}